target datalayout = "e-m:e-p270:32:32-p271:32:32-p272:64:64-i64:64-i128:128-f80:128-n8:16:32:64-S128"
target triple = "x86_64-pc-linux-gnu"

%struct.onas_rcvln = type { [5120 x i8], i32, ptr, i32, i64, ptr, ptr }

; Function Attrs: nounwind uwtable
define dso_local void @onas_recvlninit(ptr noundef %0, ptr noundef %1, i32 noundef %2) #0 {
  %4 = alloca ptr, align 8
  %5 = alloca ptr, align 8
  %6 = alloca i32, align 4
  store ptr %0, ptr %4, align 8, !tbaa !15
  store ptr %1, ptr %5, align 8, !tbaa !4
  store i32 %2, ptr %6, align 4, !tbaa !10
  %7 = load ptr, ptr %5, align 8, !tbaa !4
  %8 = load ptr, ptr %4, align 8, !tbaa !15
  %9 = getelementptr inbounds nuw %struct.onas_rcvln, ptr %8, i32 0, i32 2
  store ptr %7, ptr %9, align 8, !tbaa !17
  %10 = load ptr, ptr %4, align 8, !tbaa !15
  %11 = getelementptr inbounds nuw %struct.onas_rcvln, ptr %10, i32 0, i32 3
  store i32 0, ptr %11, align 8, !tbaa !20
  %12 = load ptr, ptr %4, align 8, !tbaa !15
  %13 = getelementptr inbounds nuw %struct.onas_rcvln, ptr %12, i32 0, i32 0
  %14 = getelementptr inbounds [5120 x i8], ptr %13, i64 0, i64 0
  %15 = load ptr, ptr %4, align 8, !tbaa !15
  %16 = getelementptr inbounds nuw %struct.onas_rcvln, ptr %15, i32 0, i32 5
  store ptr %14, ptr %16, align 8, !tbaa !21
  %17 = load ptr, ptr %4, align 8, !tbaa !15
  %18 = getelementptr inbounds nuw %struct.onas_rcvln, ptr %17, i32 0, i32 6
  store ptr %14, ptr %18, align 8, !tbaa !22
  %19 = load ptr, ptr %4, align 8, !tbaa !15
  %20 = getelementptr inbounds nuw %struct.onas_rcvln, ptr %19, i32 0, i32 4
  store i64 0, ptr %20, align 8, !tbaa !23
  %21 = load i32, ptr %6, align 4, !tbaa !10
  %22 = load ptr, ptr %4, align 8, !tbaa !15
  %23 = getelementptr inbounds nuw %struct.onas_rcvln, ptr %22, i32 0, i32 1
  store i32 %21, ptr %23, align 8, !tbaa !24
  ret void
}